; Function Attrs: mustprogress uwtable
define void @_ZN17RtpAnalysisDialog17getSelectedRtpIdsEv(ptr dead_on_unwind noalias writable sret(%class.QList.78) align 8 %0, ptr noundef nonnull align 8 dereferenceable(328) %1) local_unnamed_addr #0 align 2 personality ptr @__gxx_personality_v0 {
  %3 = alloca ptr, align 8
  tail call void @llvm.memset.p0.i64(ptr noundef nonnull align 8 dereferenceable(24) %0, i8 0, i64 24, i1 false)
  %4 = getelementptr inbounds i8, ptr %1, i64 152
  %5 = getelementptr inbounds i8, ptr %1, i64 168
  %6 = load i64, ptr %5, align 8
  %7 = icmp sgt i64 %6, 0
  br i1 %7, label %.lr.ph, label %._crit_edge

.lr.ph:                                           ; preds = %2
  %8 = getelementptr inbounds i8, ptr %1, i64 160
  %9 = getelementptr inbounds i8, ptr %0, i64 16
  br label %10

10:                                               ; preds = %.lr.ph, %23
  %11 = phi i64 [ 0, %.lr.ph ], [ %25, %23 ]
  %.09 = phi i32 [ 0, %.lr.ph ], [ %24, %23 ]
  %12 = load ptr, ptr %4, align 8
  %.not.i.i.i.i = icmp eq ptr %12, null
  br i1 %.not.i.i.i.i, label %_ZN5QListIP10tab_info_tE6detachEv.exit.i, label %_ZNK17QArrayDataPointerIP10tab_info_tE11needsDetachEv.exit.i.i.i

_ZNK17QArrayDataPointerIP10tab_info_tE11needsDetachEv.exit.i.i.i: ; preds = %10
  %13 = load atomic i32, ptr %12 monotonic, align 4
  %14 = icmp sgt i32 %13, 1
  br i1 %14, label %_ZN5QListIP10tab_info_tE6detachEv.exit.i, label %_ZNK17QArrayDataPointerIP10tab_info_tE11needsDetachEv.exit.i.i.i.i

_ZN5QListIP10tab_info_tE6detachEv.exit.i:         ; preds = %_ZNK17QArrayDataPointerIP10tab_info_tE11needsDetachEv.exit.i.i.i, %10
  invoke void @_ZN17QArrayDataPointerIP10tab_info_tE17reallocateAndGrowEN10QArrayData14GrowthPositionExPS2_(ptr noundef nonnull align 8 dereferenceable(24) %4, i32 noundef 0, i64 noundef 0, ptr noundef null)
          to label %.noexc unwind label %28

.noexc:                                           ; preds = %_ZN5QListIP10tab_info_tE6detachEv.exit.i
  %.pre.i = load ptr, ptr %4, align 8
  %.not.i.i.i.i.i = icmp eq ptr %.pre.i, null
  br i1 %.not.i.i.i.i.i, label %_ZNK17QArrayDataPointerIP10tab_info_tE11needsDetachEv.exit.thread.i.i.i.i, label %_ZNK17QArrayDataPointerIP10tab_info_tE11needsDetachEv.exit.i.i.i.i

_ZNK17QArrayDataPointerIP10tab_info_tE11needsDetachEv.exit.i.i.i.i: ; preds = %.noexc, %_ZNK17QArrayDataPointerIP10tab_info_tE11needsDetachEv.exit.i.i.i
  %15 = phi ptr [ %.pre.i, %.noexc ], [ %12, %_ZNK17QArrayDataPointerIP10tab_info_tE11needsDetachEv.exit.i.i.i ]
  %16 = load atomic i32, ptr %15 monotonic, align 4
  %17 = icmp sgt i32 %16, 1
  br i1 %17, label %_ZNK17QArrayDataPointerIP10tab_info_tE11needsDetachEv.exit.thread.i.i.i.i, label %18

_ZNK17QArrayDataPointerIP10tab_info_tE11needsDetachEv.exit.thread.i.i.i.i: ; preds = %_ZNK17QArrayDataPointerIP10tab_info_tE11needsDetachEv.exit.i.i.i.i, %.noexc
  invoke void @_ZN17QArrayDataPointerIP10tab_info_tE17reallocateAndGrowEN10QArrayData14GrowthPositionExPS2_(ptr noundef nonnull align 8 dereferenceable(24) %4, i32 noundef 0, i64 noundef 0, ptr noundef null)
          to label %18 unwind label %28

18:                                               ; preds = %_ZNK17QArrayDataPointerIP10tab_info_tE11needsDetachEv.exit.i.i.i.i, %_ZNK17QArrayDataPointerIP10tab_info_tE11needsDetachEv.exit.thread.i.i.i.i
  %19 = load ptr, ptr %8, align 8
  %20 = getelementptr ptr, ptr %19, i64 %11
  %21 = load ptr, ptr %20, align 8
  call void @llvm.lifetime.start.p0(i64 8, ptr nonnull %3)
  store ptr %21, ptr %3, align 8
  %22 = load i64, ptr %9, align 8
  invoke void @_ZN9QtPrivate12QPodArrayOpsIP13_rtpstream_idE7emplaceIJRS2_EEEvxDpOT_(ptr noundef nonnull align 8 dereferenceable(24) %0, i64 noundef %22, ptr noundef nonnull align 8 dereferenceable(8) %3)
          to label %23 unwind label %28

23:                                               ; preds = %18
  call void @llvm.lifetime.end.p0(i64 8, ptr nonnull %3)
  %24 = add i32 %.09, 1
  %25 = sext i32 %24 to i64
  %26 = load i64, ptr %5, align 8
  %27 = icmp sgt i64 %26, %25
  br i1 %27, label %10, label %._crit_edge, !llvm.loop !41

28:                                               ; preds = %18, %_ZNK17QArrayDataPointerIP10tab_info_tE11needsDetachEv.exit.thread.i.i.i.i, %_ZN5QListIP10tab_info_tE6detachEv.exit.i
  %29 = landingpad { ptr, i32 }
          cleanup
  call void @_ZN5QListIP13_rtpstream_idED2Ev(ptr noundef nonnull align 8 dereferenceable(24) %0) #19
  resume { ptr, i32 } %29

._crit_edge:                                      ; preds = %23, %2
  ret void
}